target datalayout = "e-m:e-p270:32:32-p271:32:32-p272:64:64-i64:64-i128:128-f80:128-n8:16:32:64-S128"
target triple = "x86_64-pc-linux-gnu"

%struct._GtkDarktableGradientSlider = type { %struct._GtkDrawingArea, ptr, i32, i32, i32, [10 x double], [10 x double], [10 x i32], double, double, [3 x double], i32, i32, i32, i32, i32, i32, i32, i32, i32, ptr }
%struct._GtkDrawingArea = type { %struct._GtkWidget, ptr }
%struct._GtkWidget = type { %struct._GObject, ptr }
%struct._GObject = type { %struct._GTypeInstance, i32, ptr }
%struct._GTypeInstance = type { ptr }

@_gradient_slider_get_type.static_g_define_type_id = internal global i64 0, align 8
@.str = private unnamed_addr constant [22 x i8] c"dt_gslider_multivalue\00", align 1
@.str.1 = private unnamed_addr constant [16 x i8] c"gslider != NULL\00", align 1
@__func__._gradient_slider_set_defaults = private unnamed_addr constant [30 x i8] c"_gradient_slider_set_defaults\00", align 1

; Function Attrs: nounwind uwtable
define internal void @_gradient_slider_set_defaults(ptr noundef %0) #0 {
  %2 = alloca ptr, align 8
  %3 = alloca i32, align 4
  %4 = alloca i32, align 4
  %5 = alloca i32, align 4
  store ptr %0, ptr %2, align 8, !tbaa !24
  br label %6

6:                                                ; preds = %1
  call void @llvm.lifetime.start.p0(i64 4, ptr %3) #11
  %7 = load ptr, ptr %2, align 8, !tbaa !24
  %8 = icmp ne ptr %7, null
  br i1 %8, label %9, label %10

9:                                                ; preds = %6
  store i32 1, ptr %3, align 4, !tbaa !13
  br label %11

10:                                               ; preds = %6
  store i32 0, ptr %3, align 4, !tbaa !13
  br label %11

11:                                               ; preds = %10, %9
  %12 = load i32, ptr %3, align 4, !tbaa !13
  store i32 %12, ptr %4, align 4, !tbaa !13
  call void @llvm.lifetime.end.p0(i64 4, ptr %3) #11
  %13 = load i32, ptr %4, align 4, !tbaa !13
  %14 = sext i32 %13 to i64
  %15 = call i64 @llvm.expect.i64(i64 %14, i64 1)
  %16 = icmp ne i64 %15, 0
  br i1 %16, label %17, label %18

17:                                               ; preds = %11
  br label %19

18:                                               ; preds = %11
  call void @g_return_if_fail_warning(ptr noundef null, ptr noundef @__func__._gradient_slider_set_defaults, ptr noundef @.str.1)
  br label %93

19:                                               ; preds = %17
  br label %20

20:                                               ; preds = %19
  %21 = load ptr, ptr %2, align 8, !tbaa !24
  %22 = getelementptr inbounds nuw %struct._GtkDarktableGradientSlider, ptr %21, i32 0, i32 17
  store i32 0, ptr %22, align 8, !tbaa !36
  %23 = load ptr, ptr %2, align 8, !tbaa !24
  %24 = getelementptr inbounds nuw %struct._GtkDarktableGradientSlider, ptr %23, i32 0, i32 16
  store i32 0, ptr %24, align 4, !tbaa !37
  %25 = load ptr, ptr %2, align 8, !tbaa !24
  %26 = getelementptr inbounds nuw %struct._GtkDarktableGradientSlider, ptr %25, i32 0, i32 14
  store i32 0, ptr %26, align 4, !tbaa !38
  %27 = load ptr, ptr %2, align 8, !tbaa !24
  %28 = getelementptr inbounds nuw %struct._GtkDarktableGradientSlider, ptr %27, i32 0, i32 13
  store i32 0, ptr %28, align 8, !tbaa !39
  %29 = load ptr, ptr %2, align 8, !tbaa !24
  %30 = getelementptr inbounds nuw %struct._GtkDarktableGradientSlider, ptr %29, i32 0, i32 19
  store i32 0, ptr %30, align 8, !tbaa !40
  %31 = load ptr, ptr %2, align 8, !tbaa !24
  %32 = getelementptr inbounds nuw %struct._GtkDarktableGradientSlider, ptr %31, i32 0, i32 4
  %33 = load i32, ptr %32, align 8, !tbaa !26
  %34 = icmp eq i32 %33, 1
  %35 = select i1 %34, i32 0, i32 -1
  %36 = load ptr, ptr %2, align 8, !tbaa !24
  %37 = getelementptr inbounds nuw %struct._GtkDarktableGradientSlider, ptr %36, i32 0, i32 2
  store i32 %35, ptr %37, align 8, !tbaa !41
  %38 = load ptr, ptr %2, align 8, !tbaa !24
  %39 = getelementptr inbounds nuw %struct._GtkDarktableGradientSlider, ptr %38, i32 0, i32 3
  store i32 -1, ptr %39, align 4, !tbaa !42
  %40 = load ptr, ptr %2, align 8, !tbaa !24
  %41 = getelementptr inbounds nuw %struct._GtkDarktableGradientSlider, ptr %40, i32 0, i32 20
  store ptr @_default_linear_scale_callback, ptr %41, align 8, !tbaa !43
  %42 = load ptr, ptr %2, align 8, !tbaa !24
  %43 = getelementptr inbounds nuw %struct._GtkDarktableGradientSlider, ptr %42, i32 0, i32 15
  store i32 0, ptr %43, align 8, !tbaa !44
  %44 = load ptr, ptr %2, align 8, !tbaa !24
  %45 = getelementptr inbounds nuw %struct._GtkDarktableGradientSlider, ptr %44, i32 0, i32 17
  store i32 0, ptr %45, align 8, !tbaa !36
  %46 = load ptr, ptr %2, align 8, !tbaa !24
  %47 = getelementptr inbounds nuw %struct._GtkDarktableGradientSlider, ptr %46, i32 0, i32 10
  %48 = getelementptr inbounds [3 x double], ptr %47, i64 0, i64 2
  store double 0x7FF8000000000000, ptr %48, align 8, !tbaa !45
  %49 = load ptr, ptr %2, align 8, !tbaa !24
  %50 = getelementptr inbounds nuw %struct._GtkDarktableGradientSlider, ptr %49, i32 0, i32 10
  %51 = getelementptr inbounds [3 x double], ptr %50, i64 0, i64 1
  store double 0x7FF8000000000000, ptr %51, align 8, !tbaa !45
  %52 = load ptr, ptr %2, align 8, !tbaa !24
  %53 = getelementptr inbounds nuw %struct._GtkDarktableGradientSlider, ptr %52, i32 0, i32 10
  %54 = getelementptr inbounds [3 x double], ptr %53, i64 0, i64 0
  store double 0x7FF8000000000000, ptr %54, align 8, !tbaa !45
  %55 = load ptr, ptr %2, align 8, !tbaa !24
  %56 = getelementptr inbounds nuw %struct._GtkDarktableGradientSlider, ptr %55, i32 0, i32 8
  store double 1.000000e-02, ptr %56, align 8, !tbaa !46
  %57 = load ptr, ptr %2, align 8, !tbaa !24
  %58 = getelementptr inbounds nuw %struct._GtkDarktableGradientSlider, ptr %57, i32 0, i32 12
  store i32 6, ptr %58, align 4, !tbaa !47
  %59 = load ptr, ptr %2, align 8, !tbaa !24
  %60 = getelementptr inbounds nuw %struct._GtkDarktableGradientSlider, ptr %59, i32 0, i32 11
  store i32 6, ptr %60, align 8, !tbaa !48
  %61 = load ptr, ptr %2, align 8, !tbaa !24
  %62 = getelementptr inbounds nuw %struct._GtkDarktableGradientSlider, ptr %61, i32 0, i32 18
  store i32 1, ptr %62, align 4, !tbaa !49
  %63 = load ptr, ptr %2, align 8, !tbaa !24
  %64 = getelementptr inbounds nuw %struct._GtkDarktableGradientSlider, ptr %63, i32 0, i32 1
  store ptr null, ptr %64, align 8, !tbaa !50
  %65 = load ptr, ptr %2, align 8, !tbaa !24
  %66 = getelementptr inbounds nuw %struct._GtkDarktableGradientSlider, ptr %65, i32 0, i32 9
  store double 0.000000e+00, ptr %66, align 8, !tbaa !51
  call void @llvm.lifetime.start.p0(i64 4, ptr %5) #11
  store i32 0, ptr %5, align 4, !tbaa !13
  br label %67

67:                                               ; preds = %90, %20
  %68 = load i32, ptr %5, align 4, !tbaa !13
  %69 = load ptr, ptr %2, align 8, !tbaa !24
  %70 = getelementptr inbounds nuw %struct._GtkDarktableGradientSlider, ptr %69, i32 0, i32 4
  %71 = load i32, ptr %70, align 8, !tbaa !26
  %72 = icmp slt i32 %68, %71
  br i1 %72, label %74, label %73

73:                                               ; preds = %67
  call void @llvm.lifetime.end.p0(i64 4, ptr %5) #11
  br label %93

74:                                               ; preds = %67
  %75 = load ptr, ptr %2, align 8, !tbaa !24
  %76 = getelementptr inbounds nuw %struct._GtkDarktableGradientSlider, ptr %75, i32 0, i32 5
  %77 = load i32, ptr %5, align 4, !tbaa !13
  %78 = sext i32 %77 to i64
  %79 = getelementptr inbounds [10 x double], ptr %76, i64 0, i64 %78
  store double 0.000000e+00, ptr %79, align 8, !tbaa !45
  %80 = load ptr, ptr %2, align 8, !tbaa !24
  %81 = getelementptr inbounds nuw %struct._GtkDarktableGradientSlider, ptr %80, i32 0, i32 6
  %82 = load i32, ptr %5, align 4, !tbaa !13
  %83 = sext i32 %82 to i64
  %84 = getelementptr inbounds [10 x double], ptr %81, i64 0, i64 %83
  store double 0.000000e+00, ptr %84, align 8, !tbaa !45
  %85 = load ptr, ptr %2, align 8, !tbaa !24
  %86 = getelementptr inbounds nuw %struct._GtkDarktableGradientSlider, ptr %85, i32 0, i32 7
  %87 = load i32, ptr %5, align 4, !tbaa !13
  %88 = sext i32 %87 to i64
  %89 = getelementptr inbounds [10 x i32], ptr %86, i64 0, i64 %88
  store i32 11, ptr %89, align 4, !tbaa !13
  br label %90

90:                                               ; preds = %74
  %91 = load i32, ptr %5, align 4, !tbaa !13
  %92 = add nsw i32 %91, 1
  store i32 %92, ptr %5, align 4, !tbaa !13
  br label %67

93:                                               ; preds = %18, %73
  ret void
}

; Function Attrs: nounwind uwtable
define i64 @_gradient_slider_get_type() #0 {
  %1 = alloca i32, align 4
  %2 = alloca i64, align 8
  %3 = alloca ptr, align 8
  %4 = alloca i64, align 8
  %5 = alloca i64, align 8
  call void @llvm.lifetime.start.p0(i64 8, ptr %2) #11
  call void @llvm.lifetime.start.p0(i64 8, ptr %3) #11
  store ptr @_gradient_slider_get_type.static_g_define_type_id, ptr %3, align 8, !tbaa !6
  %6 = load ptr, ptr %3, align 8, !tbaa !6
  %7 = load atomic i64, ptr %6 seq_cst, align 8
  store i64 %7, ptr %2, align 8
  %8 = load i64, ptr %2, align 8, !tbaa !11
  store i64 %8, ptr %4, align 8, !tbaa !11
  call void @llvm.lifetime.end.p0(i64 8, ptr %3) #11
  call void @llvm.lifetime.end.p0(i64 8, ptr %2) #11
  %9 = load i64, ptr %4, align 8, !tbaa !11
  %10 = icmp ne i64 %9, 0
  br i1 %10, label %14, label %11

11:                                               ; preds = %0
  %12 = call i32 @g_once_init_enter(ptr noundef @_gradient_slider_get_type.static_g_define_type_id)
  %13 = icmp ne i32 %12, 0
  br label %14

14:                                               ; preds = %11, %0
  %15 = phi i1 [ false, %0 ], [ %13, %11 ]
  %16 = zext i1 %15 to i32
  store i32 %16, ptr %1, align 4, !tbaa !13
  %17 = load i32, ptr %1, align 4, !tbaa !13
  %18 = icmp ne i32 %17, 0
  br i1 %18, label %19, label %22

19:                                               ; preds = %14
  call void @llvm.lifetime.start.p0(i64 8, ptr %5) #11
  %20 = call i64 @_gradient_slider_get_type_once()
  store i64 %20, ptr %5, align 8, !tbaa !11
  %21 = load i64, ptr %5, align 8, !tbaa !11
  call void @g_once_init_leave(ptr noundef @_gradient_slider_get_type.static_g_define_type_id, i64 noundef %21)
  call void @llvm.lifetime.end.p0(i64 8, ptr %5) #11
  br label %22

22:                                               ; preds = %19, %14
  %23 = load i64, ptr @_gradient_slider_get_type.static_g_define_type_id, align 8, !tbaa !11
  ret i64 %23
}

; Function Attrs: nounwind uwtable
define ptr @dtgtk_gradient_slider_multivalue_new(i32 noundef %0) #0 {
  %2 = alloca i32, align 4
  %3 = alloca ptr, align 8
  store i32 %0, ptr %2, align 4, !tbaa !13
  call void @llvm.lifetime.start.p0(i64 8, ptr %3) #11
  %4 = call i64 @_gradient_slider_get_type()
  %5 = call ptr (i64, ptr, ...) @g_object_new(i64 noundef %4, ptr noundef null)
  store ptr %5, ptr %3, align 8, !tbaa !24
  %6 = load i32, ptr %2, align 4, !tbaa !13
  %7 = load ptr, ptr %3, align 8, !tbaa !24
  %8 = getelementptr inbounds nuw %struct._GtkDarktableGradientSlider, ptr %7, i32 0, i32 4
  store i32 %6, ptr %8, align 8, !tbaa !26
  %9 = load ptr, ptr %3, align 8, !tbaa !24
  call void @_gradient_slider_set_defaults(ptr noundef %9)
  %10 = load ptr, ptr %3, align 8, !tbaa !24
  %11 = call i64 @gtk_widget_get_type() #12
  %12 = call ptr @g_type_check_instance_cast(ptr noundef %10, i64 noundef %11)
  call void @dt_gui_add_class(ptr noundef %12, ptr noundef @.str)
  %13 = load ptr, ptr %3, align 8, !tbaa !24
  call void @llvm.lifetime.end.p0(i64 8, ptr %3) #11
  ret ptr %13
}