; Function Attrs: nounwind uwtable
define ptr @dtgtk_gradient_slider_multivalue_new(i32 noundef %0) local_unnamed_addr #0 {
  %2 = load atomic i64, ptr @_gradient_slider_get_type.static_g_define_type_id seq_cst, align 8
  %.not.i = icmp eq i64 %2, 0
  br i1 %.not.i, label %3, label %7

3:                                                ; preds = %1
  %4 = tail call i32 @g_once_init_enter(ptr noundef nonnull @_gradient_slider_get_type.static_g_define_type_id) #14
  %.not4.i = icmp eq i32 %4, 0
  br i1 %.not4.i, label %7, label %5

5:                                                ; preds = %3
  %6 = tail call fastcc i64 @_gradient_slider_get_type_once()
  tail call void @g_once_init_leave(ptr noundef nonnull @_gradient_slider_get_type.static_g_define_type_id, i64 noundef %6) #14
  br label %7

7:                                                ; preds = %5, %3, %1
  %8 = load i64, ptr @_gradient_slider_get_type.static_g_define_type_id, align 8, !tbaa !6
  %9 = tail call ptr (i64, ptr, ...) @g_object_new(i64 noundef %8, ptr noundef null) #14
  %10 = getelementptr inbounds nuw i8, ptr %9, i64 56
  store i32 %0, ptr %10, align 8, !tbaa !16
  %11 = getelementptr inbounds nuw i8, ptr %9, i64 328
  %12 = getelementptr inbounds nuw i8, ptr %9, i64 324
  store i32 0, ptr %12, align 4, !tbaa !28
  %13 = getelementptr inbounds nuw i8, ptr %9, i64 316
  store i32 0, ptr %13, align 4, !tbaa !29
  %14 = getelementptr inbounds nuw i8, ptr %9, i64 312
  store i32 0, ptr %14, align 8, !tbaa !30
  %15 = getelementptr inbounds nuw i8, ptr %9, i64 336
  store i32 0, ptr %15, align 8, !tbaa !31
  %16 = icmp ne i32 %0, 1
  %17 = sext i1 %16 to i32
  %18 = getelementptr inbounds nuw i8, ptr %9, i64 48
  store i32 %17, ptr %18, align 8, !tbaa !32
  %19 = getelementptr inbounds nuw i8, ptr %9, i64 52
  store i32 -1, ptr %19, align 4, !tbaa !33
  %20 = getelementptr inbounds nuw i8, ptr %9, i64 344
  store ptr @_default_linear_scale_callback, ptr %20, align 8, !tbaa !34
  %21 = getelementptr inbounds nuw i8, ptr %9, i64 320
  store i32 0, ptr %21, align 8, !tbaa !35
  store i32 0, ptr %11, align 8, !tbaa !36
  %22 = getelementptr inbounds nuw i8, ptr %9, i64 280
  %23 = getelementptr inbounds nuw i8, ptr %9, i64 296
  store double 0x7FF8000000000000, ptr %23, align 8, !tbaa !37
  %24 = getelementptr inbounds nuw i8, ptr %9, i64 288
  store double 0x7FF8000000000000, ptr %24, align 8, !tbaa !37
  store double 0x7FF8000000000000, ptr %22, align 8, !tbaa !37
  %25 = getelementptr inbounds nuw i8, ptr %9, i64 264
  store double 1.000000e-02, ptr %25, align 8, !tbaa !38
  %26 = getelementptr inbounds nuw i8, ptr %9, i64 308
  store i32 6, ptr %26, align 4, !tbaa !39
  %27 = getelementptr inbounds nuw i8, ptr %9, i64 304
  store i32 6, ptr %27, align 8, !tbaa !40
  %28 = getelementptr inbounds nuw i8, ptr %9, i64 332
  store i32 1, ptr %28, align 4, !tbaa !41
  %29 = getelementptr inbounds nuw i8, ptr %9, i64 40
  store ptr null, ptr %29, align 8, !tbaa !42
  %30 = getelementptr inbounds nuw i8, ptr %9, i64 272
  store double 0.000000e+00, ptr %30, align 8, !tbaa !43
  %31 = icmp sgt i32 %0, 0
  br i1 %31, label %.lr.ph.i, label %_gradient_slider_set_defaults.exit

.lr.ph.i:                                         ; preds = %7
  %32 = getelementptr inbounds nuw i8, ptr %9, i64 64
  %33 = getelementptr inbounds nuw i8, ptr %9, i64 144
  %34 = getelementptr inbounds nuw i8, ptr %9, i64 224
  %wide.trip.count.i = zext nneg i32 %0 to i64
  br label %35

35:                                               ; preds = %35, %.lr.ph.i
  %indvars.iv.i = phi i64 [ 0, %.lr.ph.i ], [ %indvars.iv.next.i, %35 ]
  %36 = getelementptr inbounds nuw [10 x double], ptr %32, i64 0, i64 %indvars.iv.i
  store double 0.000000e+00, ptr %36, align 8, !tbaa !37
  %37 = getelementptr inbounds nuw [10 x double], ptr %33, i64 0, i64 %indvars.iv.i
  store double 0.000000e+00, ptr %37, align 8, !tbaa !37
  %38 = getelementptr inbounds nuw [10 x i32], ptr %34, i64 0, i64 %indvars.iv.i
  store i32 11, ptr %38, align 4, !tbaa !44
  %indvars.iv.next.i = add nuw nsw i64 %indvars.iv.i, 1
  %exitcond.not.i = icmp eq i64 %indvars.iv.next.i, %wide.trip.count.i
  br i1 %exitcond.not.i, label %_gradient_slider_set_defaults.exit, label %35

_gradient_slider_set_defaults.exit:               ; preds = %35, %7
  %39 = tail call i64 @gtk_widget_get_type() #15
  %40 = tail call ptr @g_type_check_instance_cast(ptr noundef nonnull %9, i64 noundef %39) #14
  tail call void @dt_gui_add_class(ptr noundef %40, ptr noundef nonnull @.str) #14
  ret ptr %9
}